target datalayout = "e-m:e-p270:32:32-p271:32:32-p272:64:64-i64:64-i128:128-f80:128-n8:16:32:64-S128"
target triple = "x86_64-pc-linux-gnu"

%struct._zval_struct = type { %union._zend_value, %union.anon.9, %union.anon.12 }
%union._zend_value = type { i64 }
%union.anon.9 = type { i32 }
%union.anon.12 = type { i32 }
%struct._zend_array = type { %struct._zend_refcounted_h, %union.anon.1, i32, %union.anon.2, i32, i32, i32, i32, i64, ptr }
%struct._zend_refcounted_h = type { i32, %union.anon.0 }
%union.anon.0 = type { i32 }
%union.anon.1 = type { i32 }
%union.anon.2 = type { ptr }
%struct._zend_fcall_info_cache = type { ptr, ptr, ptr, ptr, ptr }
%struct._zend_class_entry = type { i8, ptr, %union.anon, i32, i32, i32, i32, ptr, ptr, ptr, %struct._zend_array, %struct._zend_array, %struct._zend_array, ptr, ptr, ptr, ptr, ptr, ptr, ptr, ptr, ptr, ptr, ptr, ptr, ptr, ptr, ptr, ptr, ptr, ptr, ptr, %union.anon.3, ptr, ptr, ptr, ptr, i32, i32, %union.anon.4, ptr, ptr, ptr, ptr, i32, ptr, ptr, %union.anon.5 }
%union.anon = type { ptr }
%union.anon.3 = type { ptr }
%union.anon.4 = type { ptr }
%union.anon.5 = type { %struct.anon.6 }
%struct.anon.6 = type { ptr, i32, i32 }
%struct._zend_object = type { %struct._zend_refcounted_h, i32, ptr, ptr, ptr, [1 x %struct._zval_struct] }
%struct._zend_string = type { %struct._zend_refcounted_h, i64, i64, [1 x i8] }

@.str.123 = private unnamed_addr constant [71 x i8] c"an object must be set via xml_set_object() to be able to lookup method\00", align 1
@.str.124 = private unnamed_addr constant [31 x i8] c"method %s::%s() does not exist\00", align 1

; Function Attrs: nounwind uwtable
define internal zeroext i1 @php_xml_check_string_method_arg(i32 noundef %0, ptr noundef %1, ptr noundef %2, ptr noundef %3) #0 {
  %5 = alloca ptr, align 8
  %6 = alloca ptr, align 8
  %7 = alloca ptr, align 8
  %8 = alloca ptr, align 8
  %9 = alloca ptr, align 8
  %10 = alloca ptr, align 8
  %11 = alloca i32, align 4
  %12 = alloca ptr, align 8
  %13 = alloca i8, align 1
  %14 = alloca i1, align 1
  %15 = alloca i32, align 4
  %16 = alloca ptr, align 8
  %17 = alloca ptr, align 8
  %18 = alloca ptr, align 8
  %19 = alloca ptr, align 8
  %20 = alloca ptr, align 8
  %21 = alloca ptr, align 8
  store i32 %0, ptr %15, align 4
  store ptr %1, ptr %16, align 8
  store ptr %2, ptr %17, align 8
  store ptr %3, ptr %18, align 8
  %22 = load ptr, ptr %17, align 8
  %23 = getelementptr inbounds %struct._zend_string, ptr %22, i32 0, i32 2
  %24 = load i64, ptr %23, align 8
  %25 = icmp eq i64 %24, 0
  br i1 %25, label %26, label %29

26:                                               ; preds = %4
  %27 = load i32, ptr %15, align 4
  %28 = icmp ne i32 %27, 0
  call void @llvm.assume(i1 %28)
  store i1 true, ptr %14, align 1
  br label %115

29:                                               ; preds = %4
  %30 = load ptr, ptr %16, align 8
  %31 = icmp ne ptr %30, null
  br i1 %31, label %36, label %32

32:                                               ; preds = %29
  %33 = load i32, ptr %15, align 4
  %34 = icmp ne i32 %33, 0
  call void @llvm.assume(i1 %34)
  %35 = load i32, ptr %15, align 4
  call void (i32, ptr, ...) @zend_argument_value_error(i32 noundef %35, ptr noundef @.str.123)
  store i1 false, ptr %14, align 1
  br label %115

36:                                               ; preds = %29
  %37 = load ptr, ptr %16, align 8
  %38 = getelementptr inbounds %struct._zend_object, ptr %37, i32 0, i32 2
  %39 = load ptr, ptr %38, align 8
  store ptr %39, ptr %19, align 8
  %40 = load ptr, ptr %17, align 8
  store ptr %40, ptr %9, align 8
  %41 = load ptr, ptr %9, align 8
  %42 = call ptr @zend_string_tolower_ex(ptr noundef %41, i1 noundef zeroext false) #11
  store ptr %42, ptr %20, align 8
  %43 = load ptr, ptr %19, align 8
  %44 = getelementptr inbounds %struct._zend_class_entry, ptr %43, i32 0, i32 10
  %45 = load ptr, ptr %20, align 8
  store ptr %44, ptr %6, align 8
  store ptr %45, ptr %7, align 8
  %46 = load ptr, ptr %6, align 8
  %47 = load ptr, ptr %7, align 8
  %48 = call ptr @zend_hash_find(ptr noundef %46, ptr noundef %47) #11
  store ptr %48, ptr %8, align 8
  %49 = load ptr, ptr %8, align 8
  %50 = icmp ne ptr %49, null
  br i1 %50, label %51, label %57

51:                                               ; preds = %36
  %52 = load ptr, ptr %8, align 8
  %53 = load ptr, ptr %52, align 8
  %54 = icmp ne ptr %53, null
  call void @llvm.assume(i1 %54)
  %55 = load ptr, ptr %8, align 8
  %56 = load ptr, ptr %55, align 8
  store ptr %56, ptr %5, align 8
  br label %58

57:                                               ; preds = %36
  store ptr null, ptr %5, align 8
  br label %58

58:                                               ; preds = %57, %51
  %59 = load ptr, ptr %5, align 8
  store ptr %59, ptr %21, align 8
  %60 = load ptr, ptr %20, align 8
  store ptr %60, ptr %12, align 8
  store i8 0, ptr %13, align 1
  %61 = load ptr, ptr %12, align 8
  %62 = getelementptr inbounds %struct._zend_refcounted_h, ptr %61, i32 0, i32 1
  %63 = load i32, ptr %62, align 4
  store i32 %63, ptr %11, align 4
  %64 = load i32, ptr %11, align 4
  %65 = and i32 %64, 1008
  %66 = and i32 %65, 64
  %67 = icmp ne i32 %66, 0
  br i1 %67, label %86, label %68

68:                                               ; preds = %58
  %69 = load ptr, ptr %12, align 8
  store ptr %69, ptr %10, align 8
  %70 = load ptr, ptr %10, align 8
  %71 = load i32, ptr %70, align 4
  %72 = icmp ugt i32 %71, 0
  call void @llvm.assume(i1 %72)
  %73 = load ptr, ptr %10, align 8
  %74 = load i32, ptr %73, align 4
  %75 = add i32 %74, -1
  store i32 %75, ptr %73, align 4
  %76 = icmp eq i32 %75, 0
  br i1 %76, label %77, label %85

77:                                               ; preds = %68
  %78 = load i8, ptr %13, align 1
  %79 = trunc i8 %78 to i1
  br i1 %79, label %80, label %82

80:                                               ; preds = %77
  %81 = load ptr, ptr %12, align 8
  call void @free(ptr noundef %81) #11
  br label %84

82:                                               ; preds = %77
  %83 = load ptr, ptr %12, align 8
  call void @_efree(ptr noundef %83) #11
  br label %84

84:                                               ; preds = %82, %80
  br label %85

85:                                               ; preds = %84, %68
  br label %86

86:                                               ; preds = %85, %58
  %87 = load ptr, ptr %21, align 8
  %88 = icmp ne ptr %87, null
  br i1 %88, label %103, label %89

89:                                               ; preds = %86
  %90 = load i32, ptr %15, align 4
  %91 = icmp ne i32 %90, 0
  br i1 %91, label %92, label %102

92:                                               ; preds = %89
  %93 = load i32, ptr %15, align 4
  %94 = load ptr, ptr %19, align 8
  %95 = getelementptr inbounds %struct._zend_class_entry, ptr %94, i32 0, i32 1
  %96 = load ptr, ptr %95, align 8
  %97 = getelementptr inbounds %struct._zend_string, ptr %96, i32 0, i32 3
  %98 = getelementptr inbounds [1 x i8], ptr %97, i64 0, i64 0
  %99 = load ptr, ptr %17, align 8
  %100 = getelementptr inbounds %struct._zend_string, ptr %99, i32 0, i32 3
  %101 = getelementptr inbounds [1 x i8], ptr %100, i64 0, i64 0
  call void (i32, ptr, ...) @zend_argument_value_error(i32 noundef %93, ptr noundef @.str.124, ptr noundef %98, ptr noundef %101)
  br label %102

102:                                              ; preds = %92, %89
  store i1 false, ptr %14, align 1
  br label %115

103:                                              ; preds = %86
  %104 = load ptr, ptr %21, align 8
  %105 = load ptr, ptr %18, align 8
  %106 = getelementptr inbounds %struct._zend_fcall_info_cache, ptr %105, i32 0, i32 0
  store ptr %104, ptr %106, align 8
  %107 = load ptr, ptr %18, align 8
  %108 = getelementptr inbounds %struct._zend_fcall_info_cache, ptr %107, i32 0, i32 1
  store ptr null, ptr %108, align 8
  %109 = load ptr, ptr %19, align 8
  %110 = load ptr, ptr %18, align 8
  %111 = getelementptr inbounds %struct._zend_fcall_info_cache, ptr %110, i32 0, i32 2
  store ptr %109, ptr %111, align 8
  %112 = load ptr, ptr %16, align 8
  %113 = load ptr, ptr %18, align 8
  %114 = getelementptr inbounds %struct._zend_fcall_info_cache, ptr %113, i32 0, i32 3
  store ptr %112, ptr %114, align 8
  store i1 true, ptr %14, align 1
  br label %115

115:                                              ; preds = %103, %102, %32, %26
  %116 = load i1, ptr %14, align 1
  ret i1 %116
}