; Function Attrs: nounwind uwtable
define internal fastcc noundef zeroext i1 @php_xml_check_string_method_arg(i32 noundef %0, ptr noundef %1, ptr noundef %2, ptr nocapture noundef writeonly %3) unnamed_addr #0 {
  %5 = getelementptr inbounds i8, ptr %2, i64 16
  %6 = load i64, ptr %5, align 8
  %7 = icmp eq i64 %6, 0
  br i1 %7, label %8, label %10

8:                                                ; preds = %4
  %9 = icmp ne i32 %0, 0
  tail call void @llvm.assume(i1 %9)
  br label %42

10:                                               ; preds = %4
  %.not = icmp eq ptr %1, null
  br i1 %.not, label %11, label %13

11:                                               ; preds = %10
  %12 = icmp ne i32 %0, 0
  tail call void @llvm.assume(i1 %12)
  tail call void (i32, ptr, ...) @zend_argument_value_error(i32 noundef %0, ptr noundef nonnull @.str.123) #16
  br label %42

13:                                               ; preds = %10
  %14 = getelementptr inbounds i8, ptr %1, i64 16
  %15 = load ptr, ptr %14, align 8
  %16 = tail call ptr @zend_string_tolower_ex(ptr noundef nonnull %2, i1 noundef zeroext false) #16
  %17 = getelementptr inbounds i8, ptr %15, i64 64
  %18 = tail call ptr @zend_hash_find(ptr noundef nonnull %17, ptr noundef %16) #16
  %.not41 = icmp eq ptr %18, null
  br i1 %.not41, label %21, label %19

19:                                               ; preds = %13
  %20 = load ptr, ptr %18, align 8, !nonnull !4, !noundef !4
  br label %21

21:                                               ; preds = %13, %19
  %.0 = phi ptr [ %20, %19 ], [ null, %13 ]
  %22 = getelementptr inbounds i8, ptr %16, i64 4
  %23 = load i32, ptr %22, align 4
  %24 = and i32 %23, 64
  %.not42 = icmp eq i32 %24, 0
  br i1 %.not42, label %25, label %31

25:                                               ; preds = %21
  %26 = load i32, ptr %16, align 4
  %27 = icmp ne i32 %26, 0
  tail call void @llvm.assume(i1 %27)
  %28 = add i32 %26, -1
  store i32 %28, ptr %16, align 4
  %29 = icmp eq i32 %28, 0
  br i1 %29, label %30, label %31

30:                                               ; preds = %25
  tail call void @_efree(ptr noundef nonnull %16) #16
  br label %31

31:                                               ; preds = %25, %30, %21
  %.not43 = icmp eq ptr %.0, null
  br i1 %.not43, label %32, label %38

32:                                               ; preds = %31
  %.not44 = icmp eq i32 %0, 0
  br i1 %.not44, label %42, label %33

33:                                               ; preds = %32
  %34 = getelementptr inbounds i8, ptr %15, i64 8
  %35 = load ptr, ptr %34, align 8
  %36 = getelementptr inbounds i8, ptr %35, i64 24
  %37 = getelementptr inbounds i8, ptr %2, i64 24
  tail call void (i32, ptr, ...) @zend_argument_value_error(i32 noundef %0, ptr noundef nonnull @.str.124, ptr noundef nonnull %36, ptr noundef nonnull %37) #16
  br label %42

38:                                               ; preds = %31
  store ptr %.0, ptr %3, align 8
  %39 = getelementptr inbounds i8, ptr %3, i64 8
  store ptr null, ptr %39, align 8
  %40 = getelementptr inbounds i8, ptr %3, i64 16
  store ptr %15, ptr %40, align 8
  %41 = getelementptr inbounds i8, ptr %3, i64 24
  store ptr %1, ptr %41, align 8
  br label %42

42:                                               ; preds = %32, %33, %38, %11, %8
  %.037 = phi i1 [ true, %8 ], [ true, %38 ], [ false, %11 ], [ false, %33 ], [ false, %32 ]
  ret i1 %.037
}